; Function Attrs: mustprogress uwtable
define void @_ZN32pxrInternal_v0_24__pxrReserved__28UsdImagingBasisCurvesAdapter24InvalidateImagingSubprimERKNS_7UsdPrimERKNS_7TfTokenERKSt6vectorIS4_SaIS4_EENS_34UsdImagingPropertyInvalidationTypeE(ptr dead_on_unwind noalias writable sret(%"class.pxrInternal_v0_24__pxrReserved__::HdDataSourceLocatorSet") align 8 %0, ptr nocapture nonnull readnone align 8 %1, ptr noundef nonnull align 8 dereferenceable(32) %2, ptr noundef nonnull align 8 dereferenceable(8) %3, ptr noundef nonnull align 8 dereferenceable(24) %4, i32 noundef %5) unnamed_addr #0 align 2 {
  %7 = load ptr, ptr %3, align 8
  %8 = icmp eq ptr %7, null
  br i1 %8, label %9, label %10

9:                                                ; preds = %6
  tail call void @_ZN32pxrInternal_v0_24__pxrReserved__35UsdImagingDataSourceBasisCurvesPrim10InvalidateERKNS_7UsdPrimERKNS_7TfTokenERKSt6vectorIS4_SaIS4_EENS_34UsdImagingPropertyInvalidationTypeE(ptr dead_on_unwind writable sret(%"class.pxrInternal_v0_24__pxrReserved__::HdDataSourceLocatorSet") align 8 %0, ptr noundef nonnull align 8 dereferenceable(32) %2, ptr noundef nonnull align 8 dereferenceable(8) %3, ptr noundef nonnull align 8 dereferenceable(24) %4, i32 noundef %5)
  br label %13

10:                                               ; preds = %6
  %11 = getelementptr inbounds nuw i8, ptr %0, i64 448
  store i32 0, ptr %11, align 8
  %12 = getelementptr inbounds nuw i8, ptr %0, i64 452
  store i32 8, ptr %12, align 4
  br label %13

13:                                               ; preds = %10, %9
  ret void
}